(dp0
S'a_DT'
p1
I8
sS'answers_NNS'
p2
I5709
sS'cold_JJ'
p3
I2048
sS'amazingly_RB'
p4
I32184
sS'dead_JJ'
p5
I1174
sS'streets_NNS'
p6
I2509
sS'black_JJ'
p7
I337
sS'get_VB'
p8
I481
sS'closet_VB'
p9
I243235
sS'have_VBP'
p10
I56
sS'has_VBZ'
p11
I42
sS'paper_NN'
p12
I1231
sS'to_TO'
p13
I10
sS'where_WRB'
p14
I88
sS'small_JJ'
p15
I252
sS'want_VBP'
p16
I1134
sS'before_IN'
p17
I127
sS'the_DT'
p18
I1
sS'gun_NN'
p19
I1444
sS'nothing_NN'
p20
I1016
sS'time_NN'
p21
I60
sS'closet_NN'
p22
I18535
sS'home_NN'
p23
I279
sS'blowing_VBG'
p24
I14196
sS'piece_NN'
p25
I1726
sS'often_RB'
p26
I251
sS'above_IN'
p27
I749
sS'or_CC'
p28
I36
sS'solve_VB'
p29
I6382
sS'publicity_NN'
p30
I7028
sS'east_NN'
p31
I620
sS'see_VB'
p32
I162
sS'any_DT'
p33
I116
sS'outside_JJ'
p34
I4249
sS'here_RB'
p35
I274
sS'papers_NNS'
p36
I2819
sS'there_EX'
p37
I59
sS'get_VBP'
p38
I2423
sS'outside_IN'
p39
I1084
sS'come_VB'
p40
I1268
sS'cold_NN'
p41
I22686
sS'reply_VBP'
p42
I46621
sS'west_JJS'
p43
I206561
sS'end_NN'
p44
I207
sS'this_DT'
p45
I32
sS'north_NN'
p46
I268
sS'for_IN'
p47
I20
sS'bad_JJ'
p48
I1160
sS'he_PRP'
p49
I28
sS'we_PRP'
p50
I171
sS'on_IN'
p51
I22
sS'restraunt_NN'
p52
I829081
sS'around_RB'
p53
I938
sS'street_NN'
p54
I367
sS'east_RB'
p55
I1814
sS'once_RB'
p56
I554
sS'ate_NN'
p57
I446088
sS'are_VBP'
p58
I34
sS'it_PRP'
p59
I26
sS'white_JJ'
p60
I313
sS'one_CD'
p61
I3
sS'west_NN'
p62
I317
sS'hands_VBZ'
p63
I52905
sS'still_RB'
p64
I212
sS'fbi_NNP'
p65
I14885
sS'read_VBN'
p66
I3331
sS'pistol_NN'
p67
I8537
sS'year_NN'
p68
I84
sS'i_PRP'
p69
I38
sS'sheet_NN'
p70
I5458
sS'carrying_VBG'
p71
I2986
sS'mayor_NN'
p72
I1282
sS'can_MD'
p73
I58
sS'rest_NN'
p74
I1003
sS'better_JJR'
p75
I935
sS'in_IN'
p76
I6
sS'go_VB'
p77
I549
sS'of_IN'
p78
I2
sS'exit_VB'
p79
I18532
sS'you_PRP'
p80
I70
sS'north_RB'
p81
I476
sS'floor_NN'
p82
I1850
sS'give_VB'
p83
I917
sS'is_VBZ'
p84
I11
s.