(dp0
S'a_DT'
p1
I8
sS'answers_NNS'
p2
I5709
sS'cold_JJ'
p3
I2048
sS'amazingly_RB'
p4
I32184
sS'dead_JJ'
p5
I1174
sS'north_NN'
p6
I268
sS'black_JJ'
p7
I337
sS'get_VB'
p8
I481
sS'closet_VB'
p9
I243235
sS'have_VBP'
p10
I56
sS'has_VBZ'
p11
I42
sS'paper_NN'
p12
I1231
sS'to_TO'
p13
I10
sS'where_WRB'
p14
I88
sS'small_JJ'
p15
I252
sS'want_VBP'
p16
I1134
sS'before_IN'
p17
I127
sS'the_DT'
p18
I1
sS'gun_NN'
p19
I1444
sS'time_NN'
p20
I60
sS'closet_NN'
p21
I18535
sS'blowing_VBG'
p22
I14196
sS'piece_NN'
p23
I1726
sS'often_RB'
p24
I251
sS'above_IN'
p25
I749
sS'or_CC'
p26
I36
sS'solve_VB'
p27
I6382
sS'publicity_NN'
p28
I7028
sS'east_NN'
p29
I620
sS'any_DT'
p30
I116
sS'outside_JJ'
p31
I4249
sS'end_NN'
p32
I207
sS'papers_NNS'
p33
I2819
sS'there_EX'
p34
I59
sS'get_VBP'
p35
I2423
sS'outside_IN'
p36
I1084
sS'come_VB'
p37
I1268
sS'cold_NN'
p38
I22686
sS'reply_VBP'
p39
I46621
sS'west_JJS'
p40
I206561
sS'home_NN'
p41
I279
sS'streets_NNS'
p42
I2509
sS'for_IN'
p43
I20
sS'bad_JJ'
p44
I1160
sS'he_PRP'
p45
I28
sS'we_PRP'
p46
I171
sS'on_IN'
p47
I22
sS'restraunt_NN'
p48
I829081
sS'around_RB'
p49
I938
sS'street_NN'
p50
I367
sS'east_RB'
p51
I1814
sS'once_RB'
p52
I554
sS'ate_NN'
p53
I446088
sS'are_VBP'
p54
I34
sS'it_PRP'
p55
I26
sS'white_JJ'
p56
I313
sS'one_CD'
p57
I3
sS'west_NN'
p58
I317
sS'hands_VBZ'
p59
I52905
sS'still_RB'
p60
I212
sS'fbi_NNP'
p61
I14885
sS'read_VBN'
p62
I3331
sS'pistol_NN'
p63
I8537
sS'year_NN'
p64
I84
sS'i_PRP'
p65
I38
sS'sheet_NN'
p66
I5458
sS'carrying_VBG'
p67
I2986
sS'mayor_NN'
p68
I1282
sS'this_DT'
p69
I32
sS'rest_NN'
p70
I1003
sS'better_JJR'
p71
I935
sS'in_IN'
p72
I6
sS'go_VB'
p73
I549
sS'of_IN'
p74
I2
sS'exit_VB'
p75
I18532
sS'you_PRP'
p76
I70
sS'north_RB'
p77
I476
sS'floor_NN'
p78
I1850
sS'give_VB'
p79
I917
sS'is_VBZ'
p80
I11
s.